	.file	"main.c"
	.text
.Ltext0:
	.file 0 "/home/lka/practice/mygames/myplatformer" "main.c"
	.section	.rodata.str1.1,"aMS",@progbits,1
.LC0:
	.string	"Couldn't initialize SDL: %s"
.LC1:
	.string	"Hello SDL"
	.section	.rodata.str1.8,"aMS",@progbits,1
	.align 8
.LC2:
	.string	"Couldn't create window and renderer: %s"
	.section	.text.startup,"ax",@progbits
	.p2align 4
	.globl	main
	.type	main, @function
main:
.LVL0:
.LFB18:
	.file 1 "main.c"
	.loc 1 9 30 view -0
	.cfi_startproc
	.loc 1 9 30 is_stmt 0 view .LVU1
	pushq	%r13
	.cfi_def_cfa_offset 16
	.cfi_offset 13, -16
	pushq	%r12
	.cfi_def_cfa_offset 24
	.cfi_offset 12, -24
	pushq	%rbp
	.cfi_def_cfa_offset 32
	.cfi_offset 6, -32
	pushq	%rbx
	.cfi_def_cfa_offset 40
	.cfi_offset 3, -40
	subq	$184, %rsp
	.cfi_def_cfa_offset 224
	.loc 1 16 10 view .LVU2
	movq	%fs:40, %rdi
	movq	%rdi, 168(%rsp)
	movl	$16416, %edi
.LVL1:
	.loc 1 16 10 view .LVU3
	call	SDL_Init@PLT
.LVL2:
	.loc 1 16 8 discriminator 1 view .LVU4
	testb	%al, %al
	je	.L23
	.loc 1 21 5 is_stmt 1 view .LVU5
	.loc 1 21 10 is_stmt 0 view .LVU6
	leaq	24(%rsp), %r9
	leaq	16(%rsp), %r8
	movl	$32, %ecx
	movl	$240, %edx
	movl	$800, %esi
	leaq	32(%rsp), %rbp
.LBB2:
	.loc 1 39 9 view .LVU7
	leaq	8(%rsp), %r12
.LBE2:
	.loc 1 21 10 view .LVU8
	leaq	.LC1(%rip), %rdi
	call	SDL_CreateWindowAndRenderer@PLT
.LVL3:
	.loc 1 21 8 discriminator 1 view .LVU9
	testb	%al, %al
	je	.L24
	.p2align 4
	.p2align 3
.L4:
	.loc 1 28 5 is_stmt 1 view .LVU10
.LBB7:
	.loc 1 29 9 view .LVU11
	movq	%rbp, %rdi
	call	SDL_PollEvent@PLT
.LVL4:
	.loc 1 30 9 view .LVU12
	.loc 1 30 12 is_stmt 0 view .LVU13
	cmpl	$256, 32(%rsp)
	je	.L6
	.loc 1 34 9 is_stmt 1 view .LVU14
	movq	24(%rsp), %rdi
	xorl	%ecx, %ecx
	movl	$255, %r8d
	xorl	%edx, %edx
	xorl	%esi, %esi
	call	SDL_SetRenderDrawColor@PLT
.LVL5:
	.loc 1 35 9 view .LVU15
	movq	24(%rsp), %rdi
	call	SDL_RenderClear@PLT
.LVL6:
	.loc 1 37 9 view .LVU16
	.loc 1 39 9 is_stmt 0 view .LVU17
	movq	16(%rsp), %rdi
	movq	%r12, %rdx
	leaq	12(%rsp), %rsi
	.loc 1 37 13 view .LVU18
	movl	$0, 8(%rsp)
	.loc 1 38 9 is_stmt 1 view .LVU19
	.loc 1 38 13 is_stmt 0 view .LVU20
	movl	$0, 12(%rsp)
	.loc 1 39 9 is_stmt 1 view .LVU21
	call	SDL_GetWindowSize@PLT
.LVL7:
	.loc 1 40 9 view .LVU22
	movq	24(%rsp), %rdi
	xorl	%edx, %edx
	xorl	%esi, %esi
	movl	$255, %r8d
	movl	$255, %ecx
	call	SDL_SetRenderDrawColor@PLT
.LVL8:
	.loc 1 41 9 view .LVU23
	.loc 1 41 13 is_stmt 0 view .LVU24
	movl	8(%rsp), %eax
	.loc 1 41 13 discriminator 3 view .LVU25
	testl	%eax, %eax
	leal	15(%rax), %r13d
	cmovns	%eax, %r13d
.LBB3:
	.loc 1 42 18 view .LVU26
	xorl	%ebx, %ebx
.LBE3:
	.loc 1 41 13 discriminator 3 view .LVU27
	sarl	$4, %r13d
.LVL9:
	.loc 1 42 9 is_stmt 1 view .LVU28
.LBB4:
	.loc 1 42 14 view .LVU29
	.loc 1 42 31 discriminator 1 view .LVU30
	cmpl	$15, %eax
	jle	.L10
.LVL10:
	.p2align 4
	.p2align 3
.L7:
	.loc 1 44 13 view .LVU31
	.loc 1 44 77 is_stmt 0 view .LVU32
	addl	$1, %ebx
.LVL11:
	.loc 1 44 13 view .LVU33
	pxor	%xmm1, %xmm1
	pxor	%xmm2, %xmm2
	movq	24(%rsp), %rdi
	.loc 1 44 82 view .LVU34
	movl	%ebx, %eax
	.loc 1 44 13 view .LVU35
	cvtsi2ssl	12(%rsp), %xmm2
	pxor	%xmm0, %xmm0
	.loc 1 44 82 view .LVU36
	sall	$4, %eax
	.loc 1 44 13 view .LVU37
	cvtsi2ssl	%eax, %xmm1
	movaps	%xmm1, %xmm3
	call	SDL_RenderLine@PLT
.LVL12:
	.loc 1 42 45 is_stmt 1 discriminator 3 view .LVU38
	.loc 1 42 31 discriminator 1 view .LVU39
	cmpl	%r13d, %ebx
	jl	.L7
.LVL13:
.L10:
	.loc 1 42 31 is_stmt 0 discriminator 1 view .LVU40
.LBE4:
.LBB5:
	.loc 1 46 31 is_stmt 1 discriminator 1 view .LVU41
	.loc 1 46 18 is_stmt 0 view .LVU42
	xorl	%ebx, %ebx
	.loc 1 46 31 discriminator 5 view .LVU43
	cmpl	$15, 12(%rsp)
	movl	$16, %eax
	jg	.L8
	jmp	.L9
.LVL14:
	.p2align 4,,10
	.p2align 3
.L26:
	.loc 1 47 62 view .LVU44
	leal	2(%rbx), %eax
	.loc 1 47 67 view .LVU45
	imull	$16, %eax, %ebx
	jo	.L25
.L11:
	movl	%ebx, %eax
	movl	%r13d, %ebx
.LVL15:
.L8:
	.loc 1 47 13 is_stmt 1 view .LVU46
	pxor	%xmm2, %xmm2
	pxor	%xmm3, %xmm3
	movq	24(%rsp), %rdi
	pxor	%xmm1, %xmm1
	cvtsi2ssl	%eax, %xmm2
	.loc 1 47 62 is_stmt 0 view .LVU47
	leal	1(%rbx), %r13d
	.loc 1 47 13 view .LVU48
	cvtsi2ssl	8(%rsp), %xmm3
	movaps	%xmm2, %xmm0
	call	SDL_RenderLine@PLT
.LVL16:
	.loc 1 46 52 is_stmt 1 discriminator 6 view .LVU49
	.loc 1 46 31 discriminator 1 view .LVU50
	.loc 1 46 46 is_stmt 0 discriminator 5 view .LVU51
	movl	12(%rsp), %edx
	testl	%edx, %edx
	leal	15(%rdx), %eax
	cmovns	%edx, %eax
	sarl	$4, %eax
	.loc 1 46 31 discriminator 5 view .LVU52
	cmpl	%eax, %r13d
	jl	.L26
.LVL17:
.L9:
	.loc 1 46 31 discriminator 5 view .LVU53
.LBE5:
	.loc 1 50 9 is_stmt 1 view .LVU54
	movq	24(%rsp), %rdi
	xorl	%ecx, %ecx
	xorl	%edx, %edx
	xorl	%esi, %esi
	call	SDL_RenderTexture@PLT
.LVL18:
	.loc 1 51 9 view .LVU55
	movq	24(%rsp), %rdi
	call	SDL_RenderPresent@PLT
.LVL19:
.LBE7:
	.loc 1 28 11 view .LVU56
	.loc 1 28 15 is_stmt 0 view .LVU57
	jmp	.L4
.LVL20:
	.p2align 4,,10
	.p2align 3
.L6:
	.loc 1 54 5 is_stmt 1 view .LVU58
	xorl	%edi, %edi
	call	SDL_DestroyTexture@PLT
.LVL21:
	.loc 1 55 5 view .LVU59
	movq	24(%rsp), %rdi
	call	SDL_DestroyRenderer@PLT
.LVL22:
	.loc 1 56 5 view .LVU60
	movq	16(%rsp), %rdi
	call	SDL_DestroyWindow@PLT
.LVL23:
	.loc 1 58 5 view .LVU61
	call	SDL_Quit@PLT
.LVL24:
	.loc 1 60 5 view .LVU62
	.loc 1 60 12 is_stmt 0 view .LVU63
	xorl	%eax, %eax
.L1:
	.loc 1 61 1 view .LVU64
	movq	168(%rsp), %rdx
	subq	%fs:40, %rdx
	jne	.L27
	addq	$184, %rsp
	.cfi_remember_state
	.cfi_def_cfa_offset 40
	popq	%rbx
	.cfi_def_cfa_offset 32
	popq	%rbp
	.cfi_def_cfa_offset 24
	popq	%r12
	.cfi_def_cfa_offset 16
	popq	%r13
	.cfi_def_cfa_offset 8
	ret
.L23:
	.cfi_restore_state
	.loc 1 17 9 is_stmt 1 view .LVU65
	call	SDL_GetError@PLT
.LVL25:
	.loc 1 17 9 is_stmt 0 discriminator 1 view .LVU66
	leaq	.LC0(%rip), %rsi
	xorl	%edi, %edi
	.loc 1 17 9 view .LVU67
	movq	%rax, %rdx
	.loc 1 17 9 discriminator 1 view .LVU68
	xorl	%eax, %eax
	call	SDL_LogError@PLT
.LVL26:
	.loc 1 18 9 is_stmt 1 view .LVU69
.L3:
	.loc 1 18 16 is_stmt 0 view .LVU70
	movl	$3, %eax
	jmp	.L1
.L24:
	.loc 1 22 9 is_stmt 1 view .LVU71
	call	SDL_GetError@PLT
.LVL27:
	.loc 1 22 9 is_stmt 0 discriminator 1 view .LVU72
	leaq	.LC2(%rip), %rsi
	xorl	%edi, %edi
	.loc 1 22 9 view .LVU73
	movq	%rax, %rdx
	.loc 1 22 9 discriminator 1 view .LVU74
	xorl	%eax, %eax
	call	SDL_LogError@PLT
.LVL28:
	.loc 1 23 9 is_stmt 1 view .LVU75
	.loc 1 23 16 is_stmt 0 view .LVU76
	jmp	.L3
.LVL29:
.L25:
.LBB8:
.LBB6:
	.loc 1 47 67 view .LVU77
	movslq	%eax, %rsi
	movl	$16, %edx
	leaq	.Lubsan_data3(%rip), %rdi
	call	__ubsan_handle_mul_overflow@PLT
.LVL30:
	jmp	.L11
.LVL31:
.L27:
	.loc 1 47 67 view .LVU78
.LBE6:
.LBE8:
	.loc 1 61 1 view .LVU79
	call	__stack_chk_fail@PLT
.LVL32:
	.cfi_endproc
.LFE18:
	.size	main, .-main
	.section	.rodata.str1.1
.LC4:
	.string	"main.c"
	.section	.data.rel.local,"aw"
	.align 16
	.type	.Lubsan_data3, @object
	.size	.Lubsan_data3, 24
.Lubsan_data3:
	.quad	.LC4
	.long	47
	.long	67
	.quad	.Lubsan_type2
	.data
	.align 2
	.type	.Lubsan_type2, @object
	.size	.Lubsan_type2, 10
.Lubsan_type2:
	.value	0
	.value	11
	.string	"'int'"
	.text
.Letext0:
	.file 2 "/usr/include/bits/types.h"
	.file 3 "/usr/include/bits/stdint-intn.h"
	.file 4 "/usr/include/bits/stdint-uintn.h"
	.file 5 "/usr/include/SDL3/SDL_stdinc.h"
	.file 6 "/usr/include/SDL3/SDL_audio.h"
	.file 7 "/usr/include/SDL3/SDL_pixels.h"
	.file 8 "/usr/include/SDL3/SDL_rect.h"
	.file 9 "/usr/include/SDL3/SDL_surface.h"
	.file 10 "/usr/include/SDL3/SDL_camera.h"
	.file 11 "/usr/include/SDL3/SDL_video.h"
	.file 12 "/usr/include/SDL3/SDL_power.h"
	.file 13 "/usr/include/SDL3/SDL_sensor.h"
	.file 14 "/usr/include/SDL3/SDL_joystick.h"
	.file 15 "/usr/include/SDL3/SDL_scancode.h"
	.file 16 "/usr/include/SDL3/SDL_keycode.h"
	.file 17 "/usr/include/SDL3/SDL_keyboard.h"
	.file 18 "/usr/include/SDL3/SDL_mouse.h"
	.file 19 "/usr/include/SDL3/SDL_touch.h"
	.file 20 "/usr/include/SDL3/SDL_pen.h"
	.file 21 "/usr/include/SDL3/SDL_events.h"
	.file 22 "/usr/include/SDL3/SDL_init.h"
	.file 23 "/usr/include/SDL3/SDL_log.h"
	.file 24 "/usr/include/SDL3/SDL_render.h"
	.file 25 "/usr/include/SDL3/SDL_error.h"
	.file 26 "<built-in>"
	.section	.note.GNU-stack,"",@progbits
